; Function Attrs: mustprogress nounwind uwtable
define dso_local noundef nonnull align 8 dereferenceable(24) ptr @_ZN4i18n12phonenumbers11UnicodeText7PointToERKS1_(ptr noundef nonnull returned align 8 dereferenceable(24) initializes((8, 16)) %0, ptr noundef nonnull readonly align 8 captures(none) dereferenceable(24) %1) local_unnamed_addr #6 align 2 {
  %3 = load ptr, ptr %1, align 8, !tbaa !44
  %4 = getelementptr inbounds nuw i8, ptr %1, i64 8
  %5 = load i32, ptr %4, align 8, !tbaa !46
  %6 = getelementptr inbounds nuw i8, ptr %0, i64 16
  %7 = load i8, ptr %6, align 8, !tbaa !17, !range !18, !noundef !19
  %8 = trunc nuw i8 %7 to i1
  br i1 %8, label %9, label %_ZN4i18n12phonenumbers11UnicodeText4Repr7PointToEPKci.exit

9:                                                ; preds = %2
  %10 = load ptr, ptr %0, align 8, !tbaa !20
  %.not.i = icmp eq ptr %10, null
  br i1 %.not.i, label %_ZN4i18n12phonenumbers11UnicodeText4Repr7PointToEPKci.exit, label %11

11:                                               ; preds = %9
  tail call void @_ZdaPv(ptr noundef nonnull %10) #26
  br label %_ZN4i18n12phonenumbers11UnicodeText4Repr7PointToEPKci.exit

_ZN4i18n12phonenumbers11UnicodeText4Repr7PointToEPKci.exit: ; preds = %2, %9, %11
  store ptr %3, ptr %0, align 8, !tbaa !20
  %12 = getelementptr inbounds nuw i8, ptr %0, i64 8
  store i32 %5, ptr %12, align 8, !tbaa !21
  %13 = getelementptr inbounds nuw i8, ptr %0, i64 12
  store i32 %5, ptr %13, align 4, !tbaa !13
  store i8 0, ptr %6, align 8, !tbaa !17
  ret ptr %0
}